; Function Attrs: mustprogress uwtable
define void @_ZN14RtpAudioStream13visualSamplesEi(ptr dead_on_unwind noalias writable sret(%class.QList.4) align 8 %0, ptr noundef nonnull align 8 dereferenceable(7680) %1, i32 noundef %2) local_unnamed_addr #0 align 2 personality ptr @__gxx_personality_v0 {
  %4 = alloca double, align 8
  %5 = alloca double, align 8
  tail call void @llvm.memset.p0.i64(ptr noundef nonnull align 8 dereferenceable(24) %0, i8 0, i64 24, i1 false)
  %6 = sitofp i32 %2 to double
  %7 = fmul double %6, 1.092200e+04
  %8 = getelementptr inbounds i8, ptr %1, i64 7528
  %9 = getelementptr inbounds i8, ptr %1, i64 7544
  %10 = load i64, ptr %9, align 8
  %11 = icmp sgt i64 %10, 0
  br i1 %11, label %.lr.ph, label %._crit_edge

.lr.ph:                                           ; preds = %3
  %12 = getelementptr inbounds i8, ptr %1, i64 7536
  %13 = getelementptr inbounds i8, ptr %1, i64 7650
  %14 = getelementptr inbounds i8, ptr %0, i64 16
  br label %15

15:                                               ; preds = %.lr.ph, %50
  %16 = phi i64 [ 0, %.lr.ph ], [ %52, %50 ]
  %.024 = phi i32 [ 0, %.lr.ph ], [ %51, %50 ]
  %17 = load ptr, ptr %8, align 8
  %.not.i.i.i.i = icmp eq ptr %17, null
  br i1 %.not.i.i.i.i, label %_ZN5QListIsE6detachEv.exit.i, label %_ZNK17QArrayDataPointerIsE11needsDetachEv.exit.i.i.i

_ZNK17QArrayDataPointerIsE11needsDetachEv.exit.i.i.i: ; preds = %15
  %18 = load atomic i32, ptr %17 monotonic, align 4
  %19 = icmp sgt i32 %18, 1
  br i1 %19, label %_ZN5QListIsE6detachEv.exit.i, label %_ZNK17QArrayDataPointerIsE11needsDetachEv.exit.i.i.i.i

_ZN5QListIsE6detachEv.exit.i:                     ; preds = %_ZNK17QArrayDataPointerIsE11needsDetachEv.exit.i.i.i, %15
  invoke void @_ZN17QArrayDataPointerIsE17reallocateAndGrowEN10QArrayData14GrowthPositionExPS0_(ptr noundef nonnull align 8 dereferenceable(24) %8, i32 noundef 0, i64 noundef 0, ptr noundef null)
          to label %.noexc unwind label %45

.noexc:                                           ; preds = %_ZN5QListIsE6detachEv.exit.i
  %.pre.i = load ptr, ptr %8, align 8
  %.not.i.i.i.i.i = icmp eq ptr %.pre.i, null
  br i1 %.not.i.i.i.i.i, label %_ZNK17QArrayDataPointerIsE11needsDetachEv.exit.thread.i.i.i.i, label %_ZNK17QArrayDataPointerIsE11needsDetachEv.exit.i.i.i.i

_ZNK17QArrayDataPointerIsE11needsDetachEv.exit.i.i.i.i: ; preds = %.noexc, %_ZNK17QArrayDataPointerIsE11needsDetachEv.exit.i.i.i
  %20 = phi ptr [ %.pre.i, %.noexc ], [ %17, %_ZNK17QArrayDataPointerIsE11needsDetachEv.exit.i.i.i ]
  %21 = load atomic i32, ptr %20 monotonic, align 4
  %22 = icmp sgt i32 %21, 1
  br i1 %22, label %_ZNK17QArrayDataPointerIsE11needsDetachEv.exit.thread.i.i.i.i, label %23

_ZNK17QArrayDataPointerIsE11needsDetachEv.exit.thread.i.i.i.i: ; preds = %_ZNK17QArrayDataPointerIsE11needsDetachEv.exit.i.i.i.i, %.noexc
  invoke void @_ZN17QArrayDataPointerIsE17reallocateAndGrowEN10QArrayData14GrowthPositionExPS0_(ptr noundef nonnull align 8 dereferenceable(24) %8, i32 noundef 0, i64 noundef 0, ptr noundef null)
          to label %23 unwind label %45

23:                                               ; preds = %_ZNK17QArrayDataPointerIsE11needsDetachEv.exit.i.i.i.i, %_ZNK17QArrayDataPointerIsE11needsDetachEv.exit.thread.i.i.i.i
  %24 = load ptr, ptr %12, align 8
  %25 = getelementptr i16, ptr %24, i64 %16
  %26 = load i16, ptr %25, align 2
  %.not = icmp eq i16 %26, -32768
  br i1 %.not, label %47, label %27

27:                                               ; preds = %23
  %28 = load ptr, ptr %8, align 8
  %.not.i.i.i.i11 = icmp eq ptr %28, null
  br i1 %.not.i.i.i.i11, label %_ZN5QListIsE6detachEv.exit.i15, label %_ZNK17QArrayDataPointerIsE11needsDetachEv.exit.i.i.i12

_ZNK17QArrayDataPointerIsE11needsDetachEv.exit.i.i.i12: ; preds = %27
  %29 = load atomic i32, ptr %28 monotonic, align 4
  %30 = icmp sgt i32 %29, 1
  br i1 %30, label %_ZN5QListIsE6detachEv.exit.i15, label %_ZNK17QArrayDataPointerIsE11needsDetachEv.exit.i.i.i.i13

_ZN5QListIsE6detachEv.exit.i15:                   ; preds = %_ZNK17QArrayDataPointerIsE11needsDetachEv.exit.i.i.i12, %27
  invoke void @_ZN17QArrayDataPointerIsE17reallocateAndGrowEN10QArrayData14GrowthPositionExPS0_(ptr noundef nonnull align 8 dereferenceable(24) %8, i32 noundef 0, i64 noundef 0, ptr noundef null)
          to label %.noexc18 unwind label %45

.noexc18:                                         ; preds = %_ZN5QListIsE6detachEv.exit.i15
  %.pre.i16 = load ptr, ptr %8, align 8
  %.not.i.i.i.i.i17 = icmp eq ptr %.pre.i16, null
  br i1 %.not.i.i.i.i.i17, label %_ZNK17QArrayDataPointerIsE11needsDetachEv.exit.thread.i.i.i.i14, label %_ZNK17QArrayDataPointerIsE11needsDetachEv.exit.i.i.i.i13

_ZNK17QArrayDataPointerIsE11needsDetachEv.exit.i.i.i.i13: ; preds = %.noexc18, %_ZNK17QArrayDataPointerIsE11needsDetachEv.exit.i.i.i12
  %31 = phi ptr [ %.pre.i16, %.noexc18 ], [ %28, %_ZNK17QArrayDataPointerIsE11needsDetachEv.exit.i.i.i12 ]
  %32 = load atomic i32, ptr %31 monotonic, align 4
  %33 = icmp sgt i32 %32, 1
  br i1 %33, label %_ZNK17QArrayDataPointerIsE11needsDetachEv.exit.thread.i.i.i.i14, label %34

_ZNK17QArrayDataPointerIsE11needsDetachEv.exit.thread.i.i.i.i14: ; preds = %_ZNK17QArrayDataPointerIsE11needsDetachEv.exit.i.i.i.i13, %.noexc18
  invoke void @_ZN17QArrayDataPointerIsE17reallocateAndGrowEN10QArrayData14GrowthPositionExPS0_(ptr noundef nonnull align 8 dereferenceable(24) %8, i32 noundef 0, i64 noundef 0, ptr noundef null)
          to label %34 unwind label %45

34:                                               ; preds = %_ZNK17QArrayDataPointerIsE11needsDetachEv.exit.i.i.i.i13, %_ZNK17QArrayDataPointerIsE11needsDetachEv.exit.thread.i.i.i.i14
  %35 = load ptr, ptr %12, align 8
  %36 = getelementptr i16, ptr %35, i64 %16
  %37 = load i16, ptr %36, align 2
  %38 = sitofp i16 %37 to double
  %39 = fmul double %38, 3.276700e+04
  %40 = load i16, ptr %13, align 2
  %41 = sitofp i16 %40 to double
  %42 = fdiv double %39, %41
  %43 = fadd double %7, %42
  call void @llvm.lifetime.start.p0(i64 8, ptr nonnull %5)
  store double %43, ptr %5, align 8
  %44 = load i64, ptr %14, align 8
  invoke void @_ZN9QtPrivate12QPodArrayOpsIdE7emplaceIJRdEEEvxDpOT_(ptr noundef nonnull align 8 dereferenceable(24) %0, i64 noundef %44, ptr noundef nonnull align 8 dereferenceable(8) %5)
          to label %_ZN5QListIdE6appendEd.exit unwind label %45

_ZN5QListIdE6appendEd.exit:                       ; preds = %34
  call void @llvm.lifetime.end.p0(i64 8, ptr nonnull %5)
  br label %50

45:                                               ; preds = %47, %34, %_ZNK17QArrayDataPointerIsE11needsDetachEv.exit.thread.i.i.i.i14, %_ZN5QListIsE6detachEv.exit.i15, %_ZNK17QArrayDataPointerIsE11needsDetachEv.exit.thread.i.i.i.i, %_ZN5QListIsE6detachEv.exit.i
  %46 = landingpad { ptr, i32 }
          cleanup
  call void @_ZN5QListIdED2Ev(ptr noundef nonnull align 8 dereferenceable(24) %0) #25
  resume { ptr, i32 } %46

47:                                               ; preds = %23
  %48 = tail call noundef double @_Z5qQNaNv() #32
  call void @llvm.lifetime.start.p0(i64 8, ptr nonnull %4)
  store double %48, ptr %4, align 8
  %49 = load i64, ptr %14, align 8
  invoke void @_ZN9QtPrivate12QPodArrayOpsIdE7emplaceIJRdEEEvxDpOT_(ptr noundef nonnull align 8 dereferenceable(24) %0, i64 noundef %49, ptr noundef nonnull align 8 dereferenceable(8) %4)
          to label %_ZN5QListIdE6appendEd.exit23 unwind label %45

_ZN5QListIdE6appendEd.exit23:                     ; preds = %47
  call void @llvm.lifetime.end.p0(i64 8, ptr nonnull %4)
  br label %50

50:                                               ; preds = %_ZN5QListIdE6appendEd.exit23, %_ZN5QListIdE6appendEd.exit
  %51 = add i32 %.024, 1
  %52 = sext i32 %51 to i64
  %53 = load i64, ptr %9, align 8
  %54 = icmp sgt i64 %53, %52
  br i1 %54, label %15, label %._crit_edge, !llvm.loop !36

._crit_edge:                                      ; preds = %50, %3
  ret void
}